; Function Attrs: mustprogress nofree norecurse nosync nounwind willreturn memory(argmem: read) uwtable
define hidden noundef ptr @_ZN2cv3dnn8FastConv14getWeightsWinoEv(ptr noundef nonnull readonly align 8 captures(none) dereferenceable(206) %0) local_unnamed_addr #3 align 2 {
  %2 = getelementptr inbounds nuw i8, ptr %0, i64 96
  %3 = load ptr, ptr %2, align 8, !tbaa !3
  %4 = ptrtoint ptr %3 to i64
  %5 = add i64 %4, 31
  %6 = and i64 %5, -32
  %7 = inttoptr i64 %6 to ptr
  ret ptr %7
}